; Function Attrs: mustprogress uwtable
define void @_ZN7rocksdb6DBImpl7GetImplERKNS_11ReadOptionsEPNS_18ColumnFamilyHandleERKNS_5SliceEPNS_13PinnableSliceE(ptr noalias sret(%"class.rocksdb::Status") align 8 %agg.result, ptr noundef nonnull align 64 dereferenceable(6660) %this, ptr noundef nonnull align 8 dereferenceable(154) %read_options, ptr noundef %column_family, ptr noundef nonnull align 8 dereferenceable(16) %key, ptr noundef %value) local_unnamed_addr #5 align 2 {
entry:
  %get_impl_options.i = alloca %"struct.rocksdb::DBImpl::GetImplOptions", align 8
  call void @llvm.lifetime.start.p0(i64 88, ptr nonnull %get_impl_options.i)
  %get_value.i.i = getelementptr inbounds i8, ptr %get_impl_options.i, i64 56
  %0 = getelementptr inbounds i8, ptr %get_impl_options.i, i64 16
  call void @llvm.memset.p0.i64(ptr noundef nonnull align 8 dereferenceable(56) %0, i8 0, i64 40, i1 false), !noalias !218
  store i8 1, ptr %get_value.i.i, align 8, !noalias !218
  %merge_operands.i.i = getelementptr inbounds i8, ptr %get_impl_options.i, i64 64
  call void @llvm.memset.p0.i64(ptr noundef nonnull align 8 dereferenceable(24) %merge_operands.i.i, i8 0, i64 24, i1 false), !noalias !218
  store ptr %column_family, ptr %get_impl_options.i, align 8, !noalias !218
  %value3.i = getelementptr inbounds i8, ptr %get_impl_options.i, i64 8
  store ptr %value, ptr %value3.i, align 8, !noalias !218
  %vtable.i = load ptr, ptr %this, align 64, !noalias !218
  %vfn.i = getelementptr inbounds i8, ptr %vtable.i, i64 1216
  %1 = load ptr, ptr %vfn.i, align 8, !noalias !218
  call void %1(ptr sret(%"class.rocksdb::Status") align 8 %agg.result, ptr noundef nonnull align 64 dereferenceable(6660) %this, ptr noundef nonnull align 8 dereferenceable(154) %read_options, ptr noundef nonnull align 8 dereferenceable(16) %key, ptr noundef nonnull align 8 dereferenceable(88) %get_impl_options.i)
  call void @llvm.lifetime.end.p0(i64 88, ptr nonnull %get_impl_options.i)
  ret void
}